(dp0
S'NOAO-13B-0270'
p1
(dp2
S'nexp'
p3
I22
sS'time'
p4
F38836.63997083902
ssS'CHILE-06B-0288'
p5
(dp6
g3
I14
sg4
F4100.0
ssS'STANDARDFIELD'
p7
(dp8
g3
I1
sg4
F260.5599766969681
ssS'SUNY-04A-0011'
p9
(dp10
g3
I35
sg4
F15067.500072097779
ssS'YALE-08A-0001'
p11
(dp12
g3
I63
sg4
F33072.56021294593
ssS'NOAO-14A-0410'
p13
(dp14
g3
I21
sg4
F5757.280086517334
ssS'CHILE-14A-0106'
p15
(dp16
g3
I0
sg4
I0
ssS'GSU-03A-0006'
p17
(dp18
g3
I32
sg4
F5068.280046284199
ssS'OSU-03A-0001'
p19
(dp20
g3
I190
sg4
F93048.31994920969
ssS'SUNY-03B-0001'
p21
(dp22
g3
I0
sg4
I0
ssS'LSU-14A-0001'
p23
(dp24
g3
I12
sg4
F18565.75999826193
ssS'MCSS-14A-0001'
p25
(dp26
g3
I2
sg4
F8451.199984550476
ssS'OSU-03B-0001'
p27
(dp28
g3
I13
sg4
F19802.399969100952
ssS'KOVACS-14A-0001'
p29
(dp30
g3
I0
sg4
I0
ssS'STANDARD'
p31
(dp32
g3
I3
sg4
F1347.4600259423255
ssS'Project'
p33
(dp34
g3
I0
sg4
I0
ssS'NOAO-14A-0016'
p35
(dp36
g3
I6
sg4
F5070.239980816841
ssS'CHILE-12B-0001'
p37
(dp38
g3
I6
sg4
F1048.799968779087
ssS'SUNY-03A-0013'
p39
(dp40
g3
I0
sg4
I0
ssS'YALE-03A-0001'
p41
(dp42
g3
I50
sg4
F35658.13993060588
ssS'ALL'
p43
(dp44
g3
I90
sg4
F59247.98014413118
ssS'LSU-11B-0003'
p45
(dp46
g3
I5
sg4
F1020.9600359201431
ssS'NOAO-14A-0257'
p47
(dp48
g3
I9
sg4
F23484.96000856161
ssS'CHILE-14A-0077'
p49
(dp50
g3
I6
sg4
F4767.459913289547
ssS'NOAO-14A-0468'
p51
(dp52
g3
I0
sg4
I0
ssS'CHILE-13B-0039'
p53
(dp54
g3
I39
sg4
F12890.879964530468
ssS'GSU-14A-0001'
p55
(dp56
g3
I0
sg4
I0
ssS'DUBLIN-11B-000'
p57
(dp58
g3
I8
sg4
F5886.7199939489365
ss.